target datalayout = "e-m:e-p270:32:32-p271:32:32-p272:64:64-i64:64-i128:128-f80:128-n8:16:32:64-S128"
target triple = "x86_64-pc-linux-gnu"

%struct.AVFormatContext = type { ptr, ptr, ptr, ptr, ptr, i32, i32, ptr, i32, ptr, i32, ptr, ptr, i64, i64, i64, i32, i32, i32, i64, i64, ptr, i32, i32, ptr, i32, i32, i32, i32, ptr, i64, i32, i32, %struct.AVIOInterruptCB, i32, i32, i32, i32, i64, i32, i32, i32, i32, i32, i32, i32, i32, i32, i32, i32, i32, i64, i32, i32, i32, i32, i32, ptr, ptr, ptr, ptr, i32, ptr, ptr, ptr, ptr, i32, ptr, ptr, i64, ptr, ptr, ptr, i64 }
%struct.AVIOInterruptCB = type { ptr, ptr }
%struct.RCWTContext = type { i32, i64, [196605 x i8] }

; Function Attrs: nounwind uwtable
define internal void @rcwt_init_cluster(ptr noundef %0) #0 {
  %2 = alloca ptr, align 8
  store ptr %0, ptr %2, align 8, !tbaa !32
  %3 = load ptr, ptr %2, align 8, !tbaa !32
  %4 = getelementptr inbounds nuw %struct.RCWTContext, ptr %3, i32 0, i32 0
  store i32 0, ptr %4, align 8, !tbaa !43
  %5 = load ptr, ptr %2, align 8, !tbaa !32
  %6 = getelementptr inbounds nuw %struct.RCWTContext, ptr %5, i32 0, i32 1
  store i64 -9223372036854775808, ptr %6, align 8, !tbaa !40
  ret void
}

; Function Attrs: nounwind uwtable
define internal i32 @rcwt_write_header(ptr noundef %0) #0 {
  %2 = alloca ptr, align 8
  store ptr %0, ptr %2, align 8, !tbaa !4
  %3 = load ptr, ptr %2, align 8, !tbaa !4
  %4 = getelementptr inbounds nuw %struct.AVFormatContext, ptr %3, i32 0, i32 7
  %5 = load ptr, ptr %4, align 8, !tbaa !9
  %6 = getelementptr inbounds ptr, ptr %5, i64 0
  %7 = load ptr, ptr %6, align 8, !tbaa !26
  call void @avpriv_set_pts_info(ptr noundef %7, i32 noundef 64, i32 noundef 1, i32 noundef 1000)
  %8 = load ptr, ptr %2, align 8, !tbaa !4
  %9 = getelementptr inbounds nuw %struct.AVFormatContext, ptr %8, i32 0, i32 4
  %10 = load ptr, ptr %9, align 8, !tbaa !28
  call void @avio_wb16(ptr noundef %10, i32 noundef 52428)
  %11 = load ptr, ptr %2, align 8, !tbaa !4
  %12 = getelementptr inbounds nuw %struct.AVFormatContext, ptr %11, i32 0, i32 4
  %13 = load ptr, ptr %12, align 8, !tbaa !28
  call void @avio_w8(ptr noundef %13, i32 noundef 237)
  %14 = load ptr, ptr %2, align 8, !tbaa !4
  %15 = getelementptr inbounds nuw %struct.AVFormatContext, ptr %14, i32 0, i32 4
  %16 = load ptr, ptr %15, align 8, !tbaa !28
  call void @avio_wb16(ptr noundef %16, i32 noundef 65280)
  %17 = load ptr, ptr %2, align 8, !tbaa !4
  %18 = getelementptr inbounds nuw %struct.AVFormatContext, ptr %17, i32 0, i32 4
  %19 = load ptr, ptr %18, align 8, !tbaa !28
  call void @avio_w8(ptr noundef %19, i32 noundef 96)
  %20 = load ptr, ptr %2, align 8, !tbaa !4
  %21 = getelementptr inbounds nuw %struct.AVFormatContext, ptr %20, i32 0, i32 4
  %22 = load ptr, ptr %21, align 8, !tbaa !28
  call void @avio_wb16(ptr noundef %22, i32 noundef 1)
  %23 = load ptr, ptr %2, align 8, !tbaa !4
  %24 = getelementptr inbounds nuw %struct.AVFormatContext, ptr %23, i32 0, i32 4
  %25 = load ptr, ptr %24, align 8, !tbaa !28
  call void @avio_wb16(ptr noundef %25, i32 noundef 0)
  %26 = load ptr, ptr %2, align 8, !tbaa !4
  %27 = getelementptr inbounds nuw %struct.AVFormatContext, ptr %26, i32 0, i32 4
  %28 = load ptr, ptr %27, align 8, !tbaa !28
  call void @avio_w8(ptr noundef %28, i32 noundef 0)
  %29 = load ptr, ptr %2, align 8, !tbaa !4
  %30 = getelementptr inbounds nuw %struct.AVFormatContext, ptr %29, i32 0, i32 3
  %31 = load ptr, ptr %30, align 8, !tbaa !29
  call void @rcwt_init_cluster(ptr noundef %31)
  ret i32 0
}