; Function Attrs: nounwind uwtable
define internal noundef i32 @rcwt_write_header(ptr noundef readonly captures(none) %0) #0 {
  %2 = getelementptr inbounds nuw i8, ptr %0, i64 48
  %3 = load ptr, ptr %2, align 8, !tbaa !4
  %4 = load ptr, ptr %3, align 8, !tbaa !24
  tail call void @avpriv_set_pts_info(ptr noundef %4, i32 noundef 64, i32 noundef 1, i32 noundef 1000) #3
  %5 = getelementptr inbounds nuw i8, ptr %0, i64 32
  %6 = load ptr, ptr %5, align 8, !tbaa !26
  tail call void @avio_wb16(ptr noundef %6, i32 noundef 52428) #3
  %7 = load ptr, ptr %5, align 8, !tbaa !26
  tail call void @avio_w8(ptr noundef %7, i32 noundef 237) #3
  %8 = load ptr, ptr %5, align 8, !tbaa !26
  tail call void @avio_wb16(ptr noundef %8, i32 noundef 65280) #3
  %9 = load ptr, ptr %5, align 8, !tbaa !26
  tail call void @avio_w8(ptr noundef %9, i32 noundef 96) #3
  %10 = load ptr, ptr %5, align 8, !tbaa !26
  tail call void @avio_wb16(ptr noundef %10, i32 noundef 1) #3
  %11 = load ptr, ptr %5, align 8, !tbaa !26
  tail call void @avio_wb16(ptr noundef %11, i32 noundef 0) #3
  %12 = load ptr, ptr %5, align 8, !tbaa !26
  tail call void @avio_w8(ptr noundef %12, i32 noundef 0) #3
  %13 = getelementptr inbounds nuw i8, ptr %0, i64 24
  %14 = load ptr, ptr %13, align 8, !tbaa !27
  store i32 0, ptr %14, align 8, !tbaa !28
  %15 = getelementptr inbounds nuw i8, ptr %14, i64 8
  store i64 -9223372036854775808, ptr %15, align 8, !tbaa !30
  ret i32 0
}